target datalayout = "e-m:e-p270:32:32-p271:32:32-p272:64:64-i64:64-i128:128-f80:128-n8:16:32:64-S128"
target triple = "x86_64-pc-linux-gnu"

%struct.H5FS_t = type { %struct.H5C_cache_entry_t, i64, i64, i64, i64, i32, i16, i32, i32, i32, i64, i64, i64, i64, i32, i64, i64, ptr, i8, i32, i8, i8, i32, i64, i64, i64, ptr }
%struct.H5C_cache_entry_t = type { ptr, i64, i64, ptr, i8, ptr, i8, i8, i8, i8, i32, i8, i8, i8, i8, i8, i32, ptr, i32, i32, i32, i32, i32, i8, i8, ptr, ptr, ptr, ptr, ptr, ptr, i8, i32, i8, i64, ptr, i64, i64, i32, i8, i32, i32, i8, ptr, ptr, ptr }
%struct.H5FS_sinfo_t = type { %struct.H5C_cache_entry_t, ptr, i8, i32, i64, i64, i64, i64, i32, i32, i32, ptr, ptr }
%struct.H5FS_section_info_t = type { i64, i64, i32, i32 }
%struct.H5FS_section_class_t = type { i32, i64, i32, ptr, ptr, ptr, ptr, ptr, ptr, ptr, ptr, ptr, ptr, ptr, ptr, ptr, ptr }

@.str.3 = private unnamed_addr constant [105 x i8] c"generated/home/dtcxzyw/WorkSpace/Projects/compilers/llvm-opt-benchmark/bench/hdf5/hdf5/src/H5FSsection.c\00", align 1
@H5E_FSPACE_g = external global i64, align 8
@H5E_CANTGET_g = external global i64, align 8
@.str.7 = private unnamed_addr constant [23 x i8] c"can't get section info\00", align 1
@H5E_CANTRELEASE_g = external global i64, align 8
@.str.9 = private unnamed_addr constant [27 x i8] c"can't release section info\00", align 1
@H5E_CANTINSERT_g = external global i64, align 8
@.str.10 = private unnamed_addr constant [36 x i8] c"'add' section class callback failed\00", align 1
@.str.12 = private unnamed_addr constant [47 x i8] c"can't insert free space section into skip list\00", align 1
@__func__.H5FS_sect_try_extend = private unnamed_addr constant [21 x i8] c"H5FS_sect_try_extend\00", align 1
@.str.13 = private unnamed_addr constant [51 x i8] c"can't remove section from internal data structures\00", align 1
@H5E_CANTFREE_g = external global i64, align 8
@.str.14 = private unnamed_addr constant [19 x i8] c"can't free section\00", align 1

; Function Attrs: nounwind uwtable
define i32 @H5FS_sect_try_extend(ptr noundef %0, ptr noundef %1, i64 noundef %2, i64 noundef %3, i64 noundef %4, i32 noundef %5, ptr noundef %6) #0 {
  %8 = alloca ptr, align 8
  %9 = alloca ptr, align 8
  %10 = alloca i64, align 8
  %11 = alloca i64, align 8
  %12 = alloca i64, align 8
  %13 = alloca i32, align 4
  %14 = alloca ptr, align 8
  %15 = alloca i8, align 1
  %16 = alloca i8, align 1
  %17 = alloca i32, align 4
  %18 = alloca i8, align 1
  %19 = alloca ptr, align 8
  %20 = alloca ptr, align 8
  store ptr %0, ptr %8, align 8
  store ptr %1, ptr %9, align 8
  store i64 %2, ptr %10, align 8
  store i64 %3, ptr %11, align 8
  store i64 %4, ptr %12, align 8
  store i32 %5, ptr %13, align 4
  store ptr %6, ptr %14, align 8
  store i8 0, ptr %15, align 1
  store i8 0, ptr %16, align 1
  store i32 0, ptr %17, align 4
  store i8 0, ptr %18, align 1
  %21 = load ptr, ptr %9, align 8
  %22 = getelementptr inbounds %struct.H5FS_t, ptr %21, i32 0, i32 2
  %23 = load i64, ptr %22, align 8
  %24 = icmp ugt i64 %23, 0
  br i1 %24, label %25, label %192

25:                                               ; preds = %7
  %26 = load ptr, ptr %8, align 8
  %27 = load ptr, ptr %9, align 8
  %28 = call i32 @H5FS__sinfo_lock(ptr noundef %26, ptr noundef %27, i32 noundef 0)
  %29 = icmp slt i32 %28, 0
  br i1 %29, label %30, label %45

30:                                               ; preds = %25
  br label %31

31:                                               ; preds = %30
  br label %32

32:                                               ; preds = %31
  br label %33

33:                                               ; preds = %32
  %34 = load i64, ptr @H5E_FSPACE_g, align 8
  %35 = load i64, ptr @H5E_CANTGET_g, align 8
  %36 = call i32 (ptr, ptr, i32, i64, i64, ptr, ...) @H5E_printf_stack(ptr noundef @.str.3, ptr noundef @__func__.H5FS_sect_try_extend, i32 noundef 1408, i64 noundef %34, i64 noundef %35, ptr noundef @.str.7)
  br label %37

37:                                               ; preds = %33
  store i8 1, ptr %18, align 1
  %38 = load i8, ptr %18, align 1
  %39 = trunc i8 %38 to i1
  %40 = zext i1 %39 to i8
  store i8 %40, ptr %18, align 1
  br label %41

41:                                               ; preds = %37
  br label %42

42:                                               ; preds = %41
  store i32 -1, ptr %17, align 4
  br label %193

43:                                               ; No predecessors!
  br label %44

44:                                               ; preds = %43
  br label %45

45:                                               ; preds = %44, %25
  store i8 1, ptr %15, align 1
  %46 = load ptr, ptr %9, align 8
  %47 = getelementptr inbounds %struct.H5FS_t, ptr %46, i32 0, i32 17
  %48 = load ptr, ptr %47, align 8
  %49 = getelementptr inbounds %struct.H5FS_sinfo_t, ptr %48, i32 0, i32 12
  %50 = load ptr, ptr %49, align 8
  %51 = call ptr @H5SL_greater(ptr noundef %50, ptr noundef %10)
  store ptr %51, ptr %19, align 8
  %52 = icmp ne ptr %51, null
  br i1 %52, label %53, label %191

53:                                               ; preds = %45
  %54 = load ptr, ptr %19, align 8
  %55 = getelementptr inbounds %struct.H5FS_section_info_t, ptr %54, i32 0, i32 1
  %56 = load i64, ptr %55, align 8
  %57 = load i64, ptr %12, align 8
  %58 = icmp uge i64 %56, %57
  br i1 %58, label %59, label %190

59:                                               ; preds = %53
  %60 = load i64, ptr %10, align 8
  %61 = load i64, ptr %11, align 8
  %62 = add i64 %60, %61
  %63 = load ptr, ptr %19, align 8
  %64 = getelementptr inbounds %struct.H5FS_section_info_t, ptr %63, i32 0, i32 0
  %65 = load i64, ptr %64, align 8
  %66 = icmp eq i64 %62, %65
  br i1 %66, label %67, label %190

67:                                               ; preds = %59
  %68 = load ptr, ptr %9, align 8
  %69 = load ptr, ptr %19, align 8
  %70 = call i32 @H5FS__sect_remove_real(ptr noundef %68, ptr noundef %69)
  %71 = icmp slt i32 %70, 0
  br i1 %71, label %72, label %87

72:                                               ; preds = %67
  br label %73

73:                                               ; preds = %72
  br label %74

74:                                               ; preds = %73
  br label %75

75:                                               ; preds = %74
  %76 = load i64, ptr @H5E_FSPACE_g, align 8
  %77 = load i64, ptr @H5E_CANTRELEASE_g, align 8
  %78 = call i32 (ptr, ptr, i32, i64, i64, ptr, ...) @H5E_printf_stack(ptr noundef @.str.3, ptr noundef @__func__.H5FS_sect_try_extend, i32 noundef 1444, i64 noundef %76, i64 noundef %77, ptr noundef @.str.13)
  br label %79

79:                                               ; preds = %75
  store i8 1, ptr %18, align 1
  %80 = load i8, ptr %18, align 1
  %81 = trunc i8 %80 to i1
  %82 = zext i1 %81 to i8
  store i8 %82, ptr %18, align 1
  br label %83

83:                                               ; preds = %79
  br label %84

84:                                               ; preds = %83
  store i32 -1, ptr %17, align 4
  br label %193

85:                                               ; No predecessors!
  br label %86

86:                                               ; preds = %85
  br label %87

87:                                               ; preds = %86, %67
  %88 = load ptr, ptr %9, align 8
  %89 = getelementptr inbounds %struct.H5FS_t, ptr %88, i32 0, i32 26
  %90 = load ptr, ptr %89, align 8
  %91 = load ptr, ptr %19, align 8
  %92 = getelementptr inbounds %struct.H5FS_section_info_t, ptr %91, i32 0, i32 2
  %93 = load i32, ptr %92, align 8
  %94 = zext i32 %93 to i64
  %95 = getelementptr inbounds %struct.H5FS_section_class_t, ptr %90, i64 %94
  store ptr %95, ptr %20, align 8
  %96 = load ptr, ptr %19, align 8
  %97 = getelementptr inbounds %struct.H5FS_section_info_t, ptr %96, i32 0, i32 1
  %98 = load i64, ptr %97, align 8
  %99 = load i64, ptr %12, align 8
  %100 = icmp ugt i64 %98, %99
  br i1 %100, label %101, label %164

101:                                              ; preds = %87
  %102 = load i64, ptr %12, align 8
  %103 = load ptr, ptr %19, align 8
  %104 = getelementptr inbounds %struct.H5FS_section_info_t, ptr %103, i32 0, i32 0
  %105 = load i64, ptr %104, align 8
  %106 = add i64 %105, %102
  store i64 %106, ptr %104, align 8
  %107 = load i64, ptr %12, align 8
  %108 = load ptr, ptr %19, align 8
  %109 = getelementptr inbounds %struct.H5FS_section_info_t, ptr %108, i32 0, i32 1
  %110 = load i64, ptr %109, align 8
  %111 = sub i64 %110, %107
  store i64 %111, ptr %109, align 8
  %112 = load ptr, ptr %20, align 8
  %113 = getelementptr inbounds %struct.H5FS_section_class_t, ptr %112, i32 0, i32 6
  %114 = load ptr, ptr %113, align 8
  %115 = icmp ne ptr %114, null
  br i1 %115, label %116, label %139

116:                                              ; preds = %101
  %117 = load ptr, ptr %20, align 8
  %118 = getelementptr inbounds %struct.H5FS_section_class_t, ptr %117, i32 0, i32 6
  %119 = load ptr, ptr %118, align 8
  %120 = load ptr, ptr %14, align 8
  %121 = call i32 %119(ptr noundef %19, ptr noundef %13, ptr noundef %120)
  %122 = icmp slt i32 %121, 0
  br i1 %122, label %123, label %138

123:                                              ; preds = %116
  br label %124

124:                                              ; preds = %123
  br label %125

125:                                              ; preds = %124
  br label %126

126:                                              ; preds = %125
  %127 = load i64, ptr @H5E_FSPACE_g, align 8
  %128 = load i64, ptr @H5E_CANTINSERT_g, align 8
  %129 = call i32 (ptr, ptr, i32, i64, i64, ptr, ...) @H5E_printf_stack(ptr noundef @.str.3, ptr noundef @__func__.H5FS_sect_try_extend, i32 noundef 1465, i64 noundef %127, i64 noundef %128, ptr noundef @.str.10)
  br label %130

130:                                              ; preds = %126
  store i8 1, ptr %18, align 1
  %131 = load i8, ptr %18, align 1
  %132 = trunc i8 %131 to i1
  %133 = zext i1 %132 to i8
  store i8 %133, ptr %18, align 1
  br label %134

134:                                              ; preds = %130
  br label %135

135:                                              ; preds = %134
  store i32 -1, ptr %17, align 4
  br label %193

136:                                              ; No predecessors!
  br label %137

137:                                              ; preds = %136
  br label %138

138:                                              ; preds = %137, %116
  br label %139

139:                                              ; preds = %138, %101
  %140 = load ptr, ptr %19, align 8
  %141 = icmp ne ptr %140, null
  br i1 %141, label %142, label %163

142:                                              ; preds = %139
  %143 = load ptr, ptr %9, align 8
  %144 = load ptr, ptr %19, align 8
  %145 = call i32 @H5FS__sect_link(ptr noundef %143, ptr noundef %144, i32 noundef 0)
  %146 = icmp slt i32 %145, 0
  br i1 %146, label %147, label %162

147:                                              ; preds = %142
  br label %148

148:                                              ; preds = %147
  br label %149

149:                                              ; preds = %148
  br label %150

150:                                              ; preds = %149
  %151 = load i64, ptr @H5E_FSPACE_g, align 8
  %152 = load i64, ptr @H5E_CANTINSERT_g, align 8
  %153 = call i32 (ptr, ptr, i32, i64, i64, ptr, ...) @H5E_printf_stack(ptr noundef @.str.3, ptr noundef @__func__.H5FS_sect_try_extend, i32 noundef 1472, i64 noundef %151, i64 noundef %152, ptr noundef @.str.12)
  br label %154

154:                                              ; preds = %150
  store i8 1, ptr %18, align 1
  %155 = load i8, ptr %18, align 1
  %156 = trunc i8 %155 to i1
  %157 = zext i1 %156 to i8
  store i8 %157, ptr %18, align 1
  br label %158

158:                                              ; preds = %154
  br label %159

159:                                              ; preds = %158
  store i32 -1, ptr %17, align 4
  br label %193

160:                                              ; No predecessors!
  br label %161

161:                                              ; preds = %160
  br label %162

162:                                              ; preds = %161, %142
  br label %163

163:                                              ; preds = %162, %139
  br label %187

164:                                              ; preds = %87
  %165 = load ptr, ptr %20, align 8
  %166 = getelementptr inbounds %struct.H5FS_section_class_t, ptr %165, i32 0, i32 13
  %167 = load ptr, ptr %166, align 8
  %168 = load ptr, ptr %19, align 8
  %169 = call i32 %167(ptr noundef %168)
  %170 = icmp slt i32 %169, 0
  br i1 %170, label %171, label %186

171:                                              ; preds = %164
  br label %172

172:                                              ; preds = %171
  br label %173

173:                                              ; preds = %172
  br label %174

174:                                              ; preds = %173
  %175 = load i64, ptr @H5E_FSPACE_g, align 8
  %176 = load i64, ptr @H5E_CANTFREE_g, align 8
  %177 = call i32 (ptr, ptr, i32, i64, i64, ptr, ...) @H5E_printf_stack(ptr noundef @.str.3, ptr noundef @__func__.H5FS_sect_try_extend, i32 noundef 1481, i64 noundef %175, i64 noundef %176, ptr noundef @.str.14)
  br label %178

178:                                              ; preds = %174
  store i8 1, ptr %18, align 1
  %179 = load i8, ptr %18, align 1
  %180 = trunc i8 %179 to i1
  %181 = zext i1 %180 to i8
  store i8 %181, ptr %18, align 1
  br label %182

182:                                              ; preds = %178
  br label %183

183:                                              ; preds = %182
  store i32 -1, ptr %17, align 4
  br label %193

184:                                              ; No predecessors!
  br label %185

185:                                              ; preds = %184
  br label %186

186:                                              ; preds = %185, %164
  br label %187

187:                                              ; preds = %186, %163
  store i8 1, ptr %16, align 1
  br label %188

188:                                              ; preds = %187
  store i32 1, ptr %17, align 4
  br label %193

189:                                              ; No predecessors!
  br label %190

190:                                              ; preds = %189, %59, %53
  br label %191

191:                                              ; preds = %190, %45
  br label %192

192:                                              ; preds = %191, %7
  br label %193

193:                                              ; preds = %192, %188, %183, %159, %135, %84, %42
  %194 = load i8, ptr %15, align 1
  %195 = trunc i8 %194 to i1
  br i1 %195, label %196, label %216

196:                                              ; preds = %193
  %197 = load ptr, ptr %8, align 8
  %198 = load ptr, ptr %9, align 8
  %199 = load i8, ptr %16, align 1
  %200 = trunc i8 %199 to i1
  %201 = call i32 @H5FS__sinfo_unlock(ptr noundef %197, ptr noundef %198, i1 noundef zeroext %200)
  %202 = icmp slt i32 %201, 0
  br i1 %202, label %203, label %216

203:                                              ; preds = %196
  br label %204

204:                                              ; preds = %203
  br label %205

205:                                              ; preds = %204
  br label %206

206:                                              ; preds = %205
  %207 = load i64, ptr @H5E_FSPACE_g, align 8
  %208 = load i64, ptr @H5E_CANTRELEASE_g, align 8
  %209 = call i32 (ptr, ptr, i32, i64, i64, ptr, ...) @H5E_printf_stack(ptr noundef @.str.3, ptr noundef @__func__.H5FS_sect_try_extend, i32 noundef 1496, i64 noundef %207, i64 noundef %208, ptr noundef @.str.9)
  br label %210

210:                                              ; preds = %206
  store i8 1, ptr %18, align 1
  %211 = load i8, ptr %18, align 1
  %212 = trunc i8 %211 to i1
  %213 = zext i1 %212 to i8
  store i8 %213, ptr %18, align 1
  br label %214

214:                                              ; preds = %210
  store i32 -1, ptr %17, align 4
  br label %215

215:                                              ; preds = %214
  br label %216

216:                                              ; preds = %215, %196, %193
  %217 = load i32, ptr %17, align 4
  ret i32 %217
}