; Function Attrs: nounwind uwtable
define range(i32 -1, 2) i32 @H5FS_sect_try_extend(ptr noundef %0, ptr noundef %1, i64 noundef %2, i64 noundef %3, i64 noundef %4, i32 noundef %5, ptr noundef %6) local_unnamed_addr #0 {
  %8 = alloca i64, align 8
  %9 = alloca i32, align 4
  %10 = alloca ptr, align 8
  store i64 %2, ptr %8, align 8
  store i32 %5, ptr %9, align 4
  %11 = getelementptr inbounds i8, ptr %1, i64 256
  %12 = load i64, ptr %11, align 8
  %.not = icmp eq i64 %12, 0
  br i1 %.not, label %87, label %13

13:                                               ; preds = %7
  %14 = tail call fastcc i32 @H5FS__sinfo_lock(ptr noundef %0, ptr noundef nonnull %1, i32 noundef 0)
  %15 = icmp slt i32 %14, 0
  br i1 %15, label %16, label %20

16:                                               ; preds = %13
  %17 = load i64, ptr @H5E_FSPACE_g, align 8
  %18 = load i64, ptr @H5E_CANTGET_g, align 8
  %19 = tail call i32 (ptr, ptr, i32, i64, i64, ptr, ...) @H5E_printf_stack(ptr noundef nonnull @.str.3, ptr noundef nonnull @__func__.H5FS_sect_try_extend, i32 noundef 1408, i64 noundef %17, i64 noundef %18, ptr noundef nonnull @.str.7) #6
  br label %87

20:                                               ; preds = %13
  %21 = getelementptr inbounds i8, ptr %1, i64 360
  %22 = load ptr, ptr %21, align 8
  %23 = getelementptr inbounds i8, ptr %22, i64 320
  %24 = load ptr, ptr %23, align 8
  %25 = call ptr @H5SL_greater(ptr noundef %24, ptr noundef nonnull %8) #6
  store ptr %25, ptr %10, align 8
  %.not32 = icmp eq ptr %25, null
  br i1 %.not32, label %80, label %26

26:                                               ; preds = %20
  %27 = getelementptr inbounds i8, ptr %25, i64 8
  %28 = load i64, ptr %27, align 8
  %.not33 = icmp ult i64 %28, %4
  br i1 %.not33, label %80, label %29

29:                                               ; preds = %26
  %30 = load i64, ptr %8, align 8
  %31 = add i64 %30, %3
  %32 = load i64, ptr %25, align 8
  %33 = icmp eq i64 %31, %32
  br i1 %33, label %34, label %80

34:                                               ; preds = %29
  %35 = call fastcc i32 @H5FS__sect_remove_real(ptr noundef nonnull %1, ptr noundef nonnull %25)
  %36 = icmp slt i32 %35, 0
  br i1 %36, label %37, label %41

37:                                               ; preds = %34
  %38 = load i64, ptr @H5E_FSPACE_g, align 8
  %39 = load i64, ptr @H5E_CANTRELEASE_g, align 8
  %40 = call i32 (ptr, ptr, i32, i64, i64, ptr, ...) @H5E_printf_stack(ptr noundef nonnull @.str.3, ptr noundef nonnull @__func__.H5FS_sect_try_extend, i32 noundef 1444, i64 noundef %38, i64 noundef %39, ptr noundef nonnull @.str.13) #6
  br label %80

41:                                               ; preds = %34
  %42 = getelementptr inbounds i8, ptr %1, i64 408
  %43 = load ptr, ptr %42, align 8
  %44 = getelementptr inbounds i8, ptr %25, i64 16
  %45 = load i32, ptr %44, align 8
  %46 = zext i32 %45 to i64
  %47 = getelementptr inbounds %struct.H5FS_section_class_t, ptr %43, i64 %46
  %48 = load i64, ptr %27, align 8
  %49 = icmp ugt i64 %48, %4
  br i1 %49, label %50, label %71

50:                                               ; preds = %41
  %51 = load i64, ptr %25, align 8
  %52 = add i64 %51, %4
  store i64 %52, ptr %25, align 8
  %53 = sub i64 %48, %4
  store i64 %53, ptr %27, align 8
  %54 = getelementptr inbounds i8, ptr %47, i64 48
  %55 = load ptr, ptr %54, align 8
  %.not34 = icmp eq ptr %55, null
  br i1 %.not34, label %.thread, label %56

56:                                               ; preds = %50
  %57 = call i32 %55(ptr noundef nonnull %10, ptr noundef nonnull %9, ptr noundef %6) #6
  %58 = icmp slt i32 %57, 0
  br i1 %58, label %59, label %63

59:                                               ; preds = %56
  %60 = load i64, ptr @H5E_FSPACE_g, align 8
  %61 = load i64, ptr @H5E_CANTINSERT_g, align 8
  %62 = call i32 (ptr, ptr, i32, i64, i64, ptr, ...) @H5E_printf_stack(ptr noundef nonnull @.str.3, ptr noundef nonnull @__func__.H5FS_sect_try_extend, i32 noundef 1465, i64 noundef %60, i64 noundef %61, ptr noundef nonnull @.str.10) #6
  br label %80

63:                                               ; preds = %56
  %.pre = load ptr, ptr %10, align 8
  %.not35 = icmp eq ptr %.pre, null
  br i1 %.not35, label %80, label %.thread

.thread:                                          ; preds = %50, %63
  %64 = phi ptr [ %.pre, %63 ], [ %25, %50 ]
  %65 = call fastcc i32 @H5FS__sect_link(ptr noundef nonnull %1, ptr noundef nonnull %64, i32 noundef 0)
  %66 = icmp slt i32 %65, 0
  br i1 %66, label %67, label %80

67:                                               ; preds = %.thread
  %68 = load i64, ptr @H5E_FSPACE_g, align 8
  %69 = load i64, ptr @H5E_CANTINSERT_g, align 8
  %70 = call i32 (ptr, ptr, i32, i64, i64, ptr, ...) @H5E_printf_stack(ptr noundef nonnull @.str.3, ptr noundef nonnull @__func__.H5FS_sect_try_extend, i32 noundef 1472, i64 noundef %68, i64 noundef %69, ptr noundef nonnull @.str.12) #6
  br label %80

71:                                               ; preds = %41
  %72 = getelementptr inbounds i8, ptr %47, i64 104
  %73 = load ptr, ptr %72, align 8
  %74 = call i32 %73(ptr noundef nonnull %25) #6
  %75 = icmp slt i32 %74, 0
  br i1 %75, label %76, label %80

76:                                               ; preds = %71
  %77 = load i64, ptr @H5E_FSPACE_g, align 8
  %78 = load i64, ptr @H5E_CANTFREE_g, align 8
  %79 = call i32 (ptr, ptr, i32, i64, i64, ptr, ...) @H5E_printf_stack(ptr noundef nonnull @.str.3, ptr noundef nonnull @__func__.H5FS_sect_try_extend, i32 noundef 1481, i64 noundef %77, i64 noundef %78, ptr noundef nonnull @.str.14) #6
  br label %80

80:                                               ; preds = %37, %59, %67, %76, %29, %26, %20, %71, %63, %.thread
  %.027.ph = phi i1 [ true, %.thread ], [ true, %63 ], [ true, %71 ], [ false, %20 ], [ false, %26 ], [ false, %29 ], [ false, %76 ], [ false, %67 ], [ false, %59 ], [ false, %37 ]
  %.026.ph = phi i32 [ 1, %.thread ], [ 1, %63 ], [ 1, %71 ], [ 0, %20 ], [ 0, %26 ], [ 0, %29 ], [ -1, %76 ], [ -1, %67 ], [ -1, %59 ], [ -1, %37 ]
  %81 = call fastcc i32 @H5FS__sinfo_unlock(ptr noundef %0, ptr noundef nonnull %1, i1 noundef zeroext %.027.ph)
  %82 = icmp slt i32 %81, 0
  br i1 %82, label %83, label %87

83:                                               ; preds = %80
  %84 = load i64, ptr @H5E_FSPACE_g, align 8
  %85 = load i64, ptr @H5E_CANTRELEASE_g, align 8
  %86 = call i32 (ptr, ptr, i32, i64, i64, ptr, ...) @H5E_printf_stack(ptr noundef nonnull @.str.3, ptr noundef nonnull @__func__.H5FS_sect_try_extend, i32 noundef 1496, i64 noundef %84, i64 noundef %85, ptr noundef nonnull @.str.9) #6
  br label %87

87:                                               ; preds = %16, %7, %83, %80
  %.1 = phi i32 [ -1, %83 ], [ %.026.ph, %80 ], [ -1, %16 ], [ 0, %7 ]
  ret i32 %.1
}